; Function Attrs: mustprogress nofree norecurse nosync nounwind memory(argmem: readwrite, inaccessiblemem: readwrite) uwtable
define void @_ZN5arrow15BasicDecimal25611GetMaxValueEi(ptr dead_on_unwind noalias writable sret(%"class.arrow::BasicDecimal256") align 8 captures(none) initializes((0, 32)) %0, i32 noundef %1) local_unnamed_addr #9 align 2 personality ptr @__gxx_personality_v0 {
  %3 = alloca %"class.arrow::BasicDecimal256", align 8
  %4 = sext i32 %1 to i64
  %5 = getelementptr inbounds [77 x %"class.arrow::BasicDecimal256"], ptr @_ZN5arrowL22kDecimal256PowersOfTenE, i64 0, i64 %4
  call void @llvm.lifetime.start.p0(i64 32, ptr nonnull %3) #15
  tail call void @llvm.experimental.noalias.scope.decl(metadata !52)
  call void @llvm.memset.p0.i64(ptr noundef nonnull align 8 dereferenceable(32) %3, i8 -1, i64 32, i1 false)
  tail call void @llvm.memcpy.p0.p0.i64(ptr noundef nonnull align 8 dereferenceable(32) %0, ptr noundef nonnull readonly align 16 dereferenceable(32) %5, i64 32, i1 false)
  br label %6

6:                                                ; preds = %6, %2
  %.021.i.i = phi i64 [ 0, %2 ], [ %.2.i.i, %6 ]
  %.01620.i.i = phi i64 [ 0, %2 ], [ %16, %6 ]
  %7 = getelementptr inbounds nuw [4 x i64], ptr %3, i64 0, i64 %.01620.i.i
  %8 = load i64, ptr %7, align 8, !tbaa !7, !noalias !52
  %9 = add i64 %8, %.021.i.i
  %10 = icmp ult i64 %9, %8
  %spec.select.i.i = zext i1 %10 to i64
  %11 = getelementptr inbounds nuw [4 x i64], ptr %0, i64 0, i64 %.01620.i.i
  %12 = load i64, ptr %11, align 8, !tbaa !7, !alias.scope !52
  %13 = add i64 %9, %12
  %14 = icmp ult i64 %13, %12
  %15 = select i1 %10, i64 2, i64 1
  %.2.i.i = select i1 %14, i64 %15, i64 %spec.select.i.i
  store i64 %13, ptr %11, align 8, !tbaa !7, !alias.scope !52
  %16 = add nuw nsw i64 %.01620.i.i, 1
  %exitcond.not.i.i = icmp eq i64 %16, 4
  br i1 %exitcond.not.i.i, label %_ZN5arrowplERKNS_15BasicDecimal256ES2_.exit, label %6, !llvm.loop !30

_ZN5arrowplERKNS_15BasicDecimal256ES2_.exit:      ; preds = %6
  call void @llvm.lifetime.end.p0(i64 32, ptr nonnull %3) #15
  ret void
}